target datalayout = "e-m:e-p270:32:32-p271:32:32-p272:64:64-i64:64-i128:128-f80:128-n8:16:32:64-S128"
target triple = "x86_64-unknown-linux-gnu"

%struct.PCIDevice = type { %struct.DeviceState, i8, i8, ptr, ptr, ptr, ptr, ptr, i32, %struct.PCIReqIDCache, [64 x i8], [7 x %struct.PCIIORegion], %struct.AddressSpace, %struct.MemoryRegion, %struct.MemoryRegion, ptr, ptr, [3 x ptr], i8, i8, i32, i8, i32, ptr, ptr, ptr, ptr, ptr, ptr, %struct.MemoryRegion, %struct.MemoryRegion, %struct.MemoryRegion, ptr, i8, i32, i8, %struct.PCIExpressDevice, ptr, ptr, i32, i8, %struct.MemoryRegion, i32, ptr, ptr, ptr, ptr, ptr, i32 }
%struct.DeviceState = type { %struct.Object, ptr, ptr, i8, i8, i64, ptr, i32, i8, ptr, %struct.NamedGPIOListHead, %struct.NamedClockListHead, %struct.BusStateHead, i32, i32, i32, %struct.ResettableState, ptr, %struct.MemReentrancyGuard }
%struct.Object = type { ptr, ptr, ptr, i32, ptr }
%struct.NamedGPIOListHead = type { ptr }
%struct.NamedClockListHead = type { ptr }
%struct.BusStateHead = type { ptr }
%struct.ResettableState = type { i32, i8, i8 }
%struct.MemReentrancyGuard = type { i8 }
%struct.PCIReqIDCache = type { ptr, i32 }
%struct.PCIIORegion = type { i64, i64, i8, ptr, ptr }
%struct.AddressSpace = type { %struct.rcu_head, ptr, ptr, ptr, i32, i32, ptr, %union.anon, %union.anon.0 }
%struct.rcu_head = type { ptr, ptr }
%union.anon = type { %struct.QTailQLink }
%struct.QTailQLink = type { ptr, ptr }
%union.anon.0 = type { %struct.QTailQLink }
%struct.PCIExpressDevice = type { i8, i8, i8, i16, %struct.PCIEAERLog, i16, i16, i16, %struct.PCIESriovPF, %struct.PCIESriovVF }
%struct.PCIEAERLog = type { i16, i16, ptr }
%struct.PCIESriovPF = type { i16, [7 x i8], ptr, ptr }
%struct.PCIESriovVF = type { ptr, i16 }
%struct.MemoryRegion = type { %struct.Object, i8, i8, i8, i8, i8, i8, i8, i8, i8, i8, ptr, ptr, ptr, ptr, ptr, ptr, i32, i128, i64, ptr, i64, i8, i8, i8, i8, i8, ptr, i64, i32, %union.anon.1, %union.anon.2, %union.anon.3, ptr, i32, ptr, ptr, i8 }
%union.anon.1 = type { %struct.QTailQLink }
%union.anon.2 = type { %struct.QTailQLink }
%union.anon.3 = type { %struct.QTailQLink }

; Function Attrs: nounwind sspstrong uwtable
define internal i32 @ldl_he_p(ptr noundef %ptr) #0 {
entry:
  %ptr.addr = alloca ptr, align 8
  %r = alloca i32, align 4
  store ptr %ptr, ptr %ptr.addr, align 8
  %0 = load ptr, ptr %ptr.addr, align 8
  call void @llvm.memcpy.p0.p0.i64(ptr align 4 %r, ptr align 1 %0, i64 4, i1 false)
  %1 = load i32, ptr %r, align 4
  ret i32 %1
}

; Function Attrs: nounwind sspstrong uwtable
define internal i32 @ldl_le_p(ptr noundef %ptr) #0 {
entry:
  %ptr.addr = alloca ptr, align 8
  store ptr %ptr, ptr %ptr.addr, align 8
  %0 = load ptr, ptr %ptr.addr, align 8
  %call = call i32 @ldl_he_p(ptr noundef %0)
  ret i32 %call
}

; Function Attrs: nounwind sspstrong uwtable
define internal i32 @pci_get_long(ptr noundef %config) #0 {
entry:
  %config.addr = alloca ptr, align 8
  store ptr %config, ptr %config.addr, align 8
  %0 = load ptr, ptr %config.addr, align 8
  %call = call i32 @ldl_le_p(ptr noundef %0)
  ret i32 %call
}

; Function Attrs: nounwind sspstrong uwtable
define internal i64 @msix_pba_mmio_read(ptr noundef %opaque, i64 noundef %addr, i32 noundef %size) #0 {
entry:
  %opaque.addr = alloca ptr, align 8
  %addr.addr = alloca i64, align 8
  %size.addr = alloca i32, align 4
  %dev = alloca ptr, align 8
  %vector_start = alloca i32, align 4
  %vector_end = alloca i32, align 4
  %_a5 = alloca i64, align 8
  %_b6 = alloca i64, align 8
  %tmp = alloca i64, align 8
  store ptr %opaque, ptr %opaque.addr, align 8
  store i64 %addr, ptr %addr.addr, align 8
  store i32 %size, ptr %size.addr, align 4
  %0 = load ptr, ptr %opaque.addr, align 8
  store ptr %0, ptr %dev, align 8
  %1 = load ptr, ptr %dev, align 8
  %msix_vector_poll_notifier = getelementptr inbounds %struct.PCIDevice, ptr %1, i32 0, i32 46
  %2 = load ptr, ptr %msix_vector_poll_notifier, align 16
  %tobool = icmp ne ptr %2, null
  br i1 %tobool, label %if.then, label %if.end

if.then:                                          ; preds = %entry
  %3 = load i64, ptr %addr.addr, align 8
  %mul = mul i64 %3, 8
  %conv = trunc i64 %mul to i32
  store i32 %conv, ptr %vector_start, align 4
  %4 = load i64, ptr %addr.addr, align 8
  %5 = load i32, ptr %size.addr, align 4
  %mul1 = mul i32 %5, 8
  %conv2 = zext i32 %mul1 to i64
  %add = add i64 %4, %conv2
  store i64 %add, ptr %_a5, align 8
  %6 = load ptr, ptr %dev, align 8
  %msix_entries_nr = getelementptr inbounds %struct.PCIDevice, ptr %6, i32 0, i32 22
  %7 = load i32, ptr %msix_entries_nr, align 4
  %conv3 = sext i32 %7 to i64
  store i64 %conv3, ptr %_b6, align 8
  %8 = load i64, ptr %_a5, align 8
  %9 = load i64, ptr %_b6, align 8
  %cmp = icmp ult i64 %8, %9
  br i1 %cmp, label %cond.true, label %cond.false

cond.true:                                        ; preds = %if.then
  %10 = load i64, ptr %_a5, align 8
  br label %cond.end

cond.false:                                       ; preds = %if.then
  %11 = load i64, ptr %_b6, align 8
  br label %cond.end

cond.end:                                         ; preds = %cond.false, %cond.true
  %cond = phi i64 [ %10, %cond.true ], [ %11, %cond.false ]
  store i64 %cond, ptr %tmp, align 8
  %12 = load i64, ptr %tmp, align 8
  %conv5 = trunc i64 %12 to i32
  store i32 %conv5, ptr %vector_end, align 4
  %13 = load ptr, ptr %dev, align 8
  %msix_vector_poll_notifier6 = getelementptr inbounds %struct.PCIDevice, ptr %13, i32 0, i32 46
  %14 = load ptr, ptr %msix_vector_poll_notifier6, align 16
  %15 = load ptr, ptr %dev, align 8
  %16 = load i32, ptr %vector_start, align 4
  %17 = load i32, ptr %vector_end, align 4
  call void %14(ptr noundef %15, i32 noundef %16, i32 noundef %17)
  br label %if.end

if.end:                                           ; preds = %cond.end, %entry
  %18 = load ptr, ptr %dev, align 8
  %msix_pba = getelementptr inbounds %struct.PCIDevice, ptr %18, i32 0, i32 24
  %19 = load ptr, ptr %msix_pba, align 16
  %20 = load i64, ptr %addr.addr, align 8
  %add.ptr = getelementptr i8, ptr %19, i64 %20
  %call = call i32 @pci_get_long(ptr noundef %add.ptr)
  %conv7 = zext i32 %call to i64
  ret i64 %conv7
}