; Function Attrs: nounwind sspstrong uwtable
define internal range(i64 0, 4294967296) i64 @msix_pba_mmio_read(ptr noundef %opaque, i64 noundef %addr, i32 noundef %size) #0 {
entry:
  %msix_vector_poll_notifier = getelementptr inbounds nuw i8, ptr %opaque, i64 2576
  %0 = load ptr, ptr %msix_vector_poll_notifier, align 16
  %tobool.not = icmp eq ptr %0, null
  br i1 %tobool.not, label %if.end, label %if.then

if.then:                                          ; preds = %entry
  %addr.tr = trunc i64 %addr to i32
  %conv = shl i32 %addr.tr, 3
  %mul1 = shl i32 %size, 3
  %conv2 = zext i32 %mul1 to i64
  %add = add i64 %addr, %conv2
  %msix_entries_nr = getelementptr inbounds nuw i8, ptr %opaque, i64 1268
  %1 = load i32, ptr %msix_entries_nr, align 4
  %conv3 = sext i32 %1 to i64
  %cond = tail call i64 @llvm.umin.i64(i64 %add, i64 %conv3)
  %conv5 = trunc i64 %cond to i32
  tail call void %0(ptr noundef nonnull %opaque, i32 noundef %conv, i32 noundef %conv5) #14
  br label %if.end

if.end:                                           ; preds = %if.then, %entry
  %msix_pba = getelementptr inbounds nuw i8, ptr %opaque, i64 1280
  %2 = load ptr, ptr %msix_pba, align 16
  %add.ptr = getelementptr i8, ptr %2, i64 %addr
  %add.ptr.val = load i32, ptr %add.ptr, align 1
  %conv7 = zext i32 %add.ptr.val to i64
  ret i64 %conv7
}